target datalayout = "e-m:e-p270:32:32-p271:32:32-p272:64:64-i64:64-i128:128-f80:128-n8:16:32:64-S128"
target triple = "x86_64-pc-linux-gnu"

%struct.__va_list_tag = type { i32, i32, ptr, ptr }

; Function Attrs: nounwind uwtable
define dso_local i32 @curl_msnprintf(ptr noundef %0, i64 noundef %1, ptr noundef %2, ...) #0 {
  %4 = alloca ptr, align 8
  %5 = alloca i64, align 8
  %6 = alloca ptr, align 8
  %7 = alloca i32, align 4
  %8 = alloca [1 x %struct.__va_list_tag], align 16
  store ptr %0, ptr %4, align 8, !tbaa !4
  store i64 %1, ptr %5, align 8, !tbaa !9
  store ptr %2, ptr %6, align 8, !tbaa !4
  call void @llvm.lifetime.start.p0(i64 4, ptr %7) #8
  call void @llvm.lifetime.start.p0(i64 24, ptr %8) #8
  %9 = getelementptr inbounds [1 x %struct.__va_list_tag], ptr %8, i64 0, i64 0
  call void @llvm.va_start.p0(ptr %9)
  %10 = load ptr, ptr %4, align 8, !tbaa !4
  %11 = load i64, ptr %5, align 8, !tbaa !9
  %12 = load ptr, ptr %6, align 8, !tbaa !4
  %13 = getelementptr inbounds [1 x %struct.__va_list_tag], ptr %8, i64 0, i64 0
  %14 = call i32 @curl_mvsnprintf(ptr noundef %10, i64 noundef %11, ptr noundef %12, ptr noundef %13)
  store i32 %14, ptr %7, align 4, !tbaa !17
  %15 = getelementptr inbounds [1 x %struct.__va_list_tag], ptr %8, i64 0, i64 0
  call void @llvm.va_end.p0(ptr %15)
  %16 = load i32, ptr %7, align 4, !tbaa !17
  call void @llvm.lifetime.end.p0(i64 24, ptr %8) #8
  call void @llvm.lifetime.end.p0(i64 4, ptr %7) #8
  ret i32 %16
}