; Function Attrs: nofree nounwind uwtable
define dso_local i32 @curl_msnprintf(ptr noundef %0, i64 noundef %1, ptr noundef %2, ...) local_unnamed_addr #0 {
  %4 = alloca [1 x %struct.__va_list_tag], align 16
  call void @llvm.lifetime.start.p0(i64 24, ptr nonnull %4) #11
  call void @llvm.va_start.p0(ptr nonnull %4)
  %5 = call i32 @curl_mvsnprintf(ptr noundef %0, i64 noundef %1, ptr noundef %2, ptr noundef nonnull %4)
  call void @llvm.va_end.p0(ptr nonnull %4)
  call void @llvm.lifetime.end.p0(i64 24, ptr nonnull %4) #11
  ret i32 %5
}